target datalayout = "e-m:e-p270:32:32-p271:32:32-p272:64:64-i64:64-i128:128-f80:128-n8:16:32:64-S128"
target triple = "x86_64-pc-linux-gnu"

; Function Attrs: alwaysinline nounwind willreturn memory(none) uwtable
define internal i32 @av_bswap32(i32 noundef %0) #5 {
  %2 = alloca i32, align 4
  store i32 %0, ptr %2, align 4, !tbaa !11
  %3 = load i32, ptr %2, align 4, !tbaa !11
  %4 = shl i32 %3, 8
  %5 = and i32 %4, 65280
  %6 = load i32, ptr %2, align 4, !tbaa !11
  %7 = lshr i32 %6, 8
  %8 = and i32 %7, 255
  %9 = or i32 %5, %8
  %10 = shl i32 %9, 16
  %11 = load i32, ptr %2, align 4, !tbaa !11
  %12 = lshr i32 %11, 16
  %13 = shl i32 %12, 8
  %14 = and i32 %13, 65280
  %15 = load i32, ptr %2, align 4, !tbaa !11
  %16 = lshr i32 %15, 16
  %17 = lshr i32 %16, 8
  %18 = and i32 %17, 255
  %19 = or i32 %14, %18
  %20 = or i32 %10, %19
  ret i32 %20
}

; Function Attrs: nounwind uwtable
define void @av_blowfish_crypt(ptr noundef %0, ptr noundef %1, ptr noundef %2, i32 noundef %3, ptr noundef %4, i32 noundef %5) #0 {
  %7 = alloca ptr, align 8
  %8 = alloca ptr, align 8
  %9 = alloca ptr, align 8
  %10 = alloca i32, align 4
  %11 = alloca ptr, align 8
  %12 = alloca i32, align 4
  %13 = alloca i32, align 4
  %14 = alloca i32, align 4
  %15 = alloca i32, align 4
  store ptr %0, ptr %7, align 8, !tbaa !4
  store ptr %1, ptr %8, align 8, !tbaa !9
  store ptr %2, ptr %9, align 8, !tbaa !9
  store i32 %3, ptr %10, align 4, !tbaa !11
  store ptr %4, ptr %11, align 8, !tbaa !9
  store i32 %5, ptr %12, align 4, !tbaa !11
  call void @llvm.lifetime.start.p0(i64 4, ptr %13) #6
  call void @llvm.lifetime.start.p0(i64 4, ptr %14) #6
  call void @llvm.lifetime.start.p0(i64 4, ptr %15) #6
  %16 = load i32, ptr %12, align 4, !tbaa !11
  %17 = icmp ne i32 %16, 0
  br i1 %17, label %18, label %62

18:                                               ; preds = %6
  br label %19

19:                                               ; preds = %49, %18
  %20 = load i32, ptr %10, align 4, !tbaa !11
  %21 = add nsw i32 %20, -1
  store i32 %21, ptr %10, align 4, !tbaa !11
  %22 = icmp ne i32 %20, 0
  br i1 %22, label %23, label %61

23:                                               ; preds = %19
  %24 = load ptr, ptr %9, align 8, !tbaa !9
  %25 = load i32, ptr %24, align 1, !tbaa !13
  %26 = call i32 @av_bswap32(i32 noundef %25) #7
  store i32 %26, ptr %13, align 4, !tbaa !11
  %27 = load ptr, ptr %9, align 8, !tbaa !9
  %28 = getelementptr inbounds i8, ptr %27, i64 4
  %29 = load i32, ptr %28, align 1, !tbaa !13
  %30 = call i32 @av_bswap32(i32 noundef %29) #7
  store i32 %30, ptr %14, align 4, !tbaa !11
  %31 = load ptr, ptr %7, align 8, !tbaa !4
  %32 = load i32, ptr %12, align 4, !tbaa !11
  call void @av_blowfish_crypt_ecb(ptr noundef %31, ptr noundef %13, ptr noundef %14, i32 noundef %32)
  %33 = load ptr, ptr %11, align 8, !tbaa !9
  %34 = icmp ne ptr %33, null
  br i1 %34, label %35, label %49

35:                                               ; preds = %23
  %36 = load ptr, ptr %11, align 8, !tbaa !9
  %37 = load i32, ptr %36, align 1, !tbaa !13
  %38 = call i32 @av_bswap32(i32 noundef %37) #7
  %39 = load i32, ptr %13, align 4, !tbaa !11
  %40 = xor i32 %39, %38
  store i32 %40, ptr %13, align 4, !tbaa !11
  %41 = load ptr, ptr %11, align 8, !tbaa !9
  %42 = getelementptr inbounds i8, ptr %41, i64 4
  %43 = load i32, ptr %42, align 1, !tbaa !13
  %44 = call i32 @av_bswap32(i32 noundef %43) #7
  %45 = load i32, ptr %14, align 4, !tbaa !11
  %46 = xor i32 %45, %44
  store i32 %46, ptr %14, align 4, !tbaa !11
  %47 = load ptr, ptr %11, align 8, !tbaa !9
  %48 = load ptr, ptr %9, align 8, !tbaa !9
  call void @llvm.memcpy.p0.p0.i64(ptr align 1 %47, ptr align 1 %48, i64 8, i1 false)
  br label %49

49:                                               ; preds = %35, %23
  %50 = load i32, ptr %13, align 4, !tbaa !11
  %51 = call i32 @av_bswap32(i32 noundef %50) #7
  %52 = load ptr, ptr %8, align 8, !tbaa !9
  store i32 %51, ptr %52, align 1, !tbaa !13
  %53 = load i32, ptr %14, align 4, !tbaa !11
  %54 = call i32 @av_bswap32(i32 noundef %53) #7
  %55 = load ptr, ptr %8, align 8, !tbaa !9
  %56 = getelementptr inbounds i8, ptr %55, i64 4
  store i32 %54, ptr %56, align 1, !tbaa !13
  %57 = load ptr, ptr %9, align 8, !tbaa !9
  %58 = getelementptr inbounds i8, ptr %57, i64 8
  store ptr %58, ptr %9, align 8, !tbaa !9
  %59 = load ptr, ptr %8, align 8, !tbaa !9
  %60 = getelementptr inbounds i8, ptr %59, i64 8
  store ptr %60, ptr %8, align 8, !tbaa !9
  br label %19, !llvm.loop !24

61:                                               ; preds = %19
  br label %133

62:                                               ; preds = %6
  br label %63

63:                                               ; preds = %127, %62
  %64 = load i32, ptr %10, align 4, !tbaa !11
  %65 = add nsw i32 %64, -1
  store i32 %65, ptr %10, align 4, !tbaa !11
  %66 = icmp ne i32 %64, 0
  br i1 %66, label %67, label %132

67:                                               ; preds = %63
  %68 = load ptr, ptr %11, align 8, !tbaa !9
  %69 = icmp ne ptr %68, null
  br i1 %69, label %70, label %104

70:                                               ; preds = %67
  store i32 0, ptr %15, align 4, !tbaa !11
  br label %71

71:                                               ; preds = %93, %70
  %72 = load i32, ptr %15, align 4, !tbaa !11
  %73 = icmp slt i32 %72, 8
  br i1 %73, label %74, label %96

74:                                               ; preds = %71
  %75 = load ptr, ptr %9, align 8, !tbaa !9
  %76 = load i32, ptr %15, align 4, !tbaa !11
  %77 = sext i32 %76 to i64
  %78 = getelementptr inbounds i8, ptr %75, i64 %77
  %79 = load i8, ptr %78, align 1, !tbaa !13
  %80 = zext i8 %79 to i32
  %81 = load ptr, ptr %11, align 8, !tbaa !9
  %82 = load i32, ptr %15, align 4, !tbaa !11
  %83 = sext i32 %82 to i64
  %84 = getelementptr inbounds i8, ptr %81, i64 %83
  %85 = load i8, ptr %84, align 1, !tbaa !13
  %86 = zext i8 %85 to i32
  %87 = xor i32 %80, %86
  %88 = trunc i32 %87 to i8
  %89 = load ptr, ptr %8, align 8, !tbaa !9
  %90 = load i32, ptr %15, align 4, !tbaa !11
  %91 = sext i32 %90 to i64
  %92 = getelementptr inbounds i8, ptr %89, i64 %91
  store i8 %88, ptr %92, align 1, !tbaa !13
  br label %93

93:                                               ; preds = %74
  %94 = load i32, ptr %15, align 4, !tbaa !11
  %95 = add nsw i32 %94, 1
  store i32 %95, ptr %15, align 4, !tbaa !11
  br label %71, !llvm.loop !25

96:                                               ; preds = %71
  %97 = load ptr, ptr %8, align 8, !tbaa !9
  %98 = load i32, ptr %97, align 1, !tbaa !13
  %99 = call i32 @av_bswap32(i32 noundef %98) #7
  store i32 %99, ptr %13, align 4, !tbaa !11
  %100 = load ptr, ptr %8, align 8, !tbaa !9
  %101 = getelementptr inbounds i8, ptr %100, i64 4
  %102 = load i32, ptr %101, align 1, !tbaa !13
  %103 = call i32 @av_bswap32(i32 noundef %102) #7
  store i32 %103, ptr %14, align 4, !tbaa !11
  br label %112

104:                                              ; preds = %67
  %105 = load ptr, ptr %9, align 8, !tbaa !9
  %106 = load i32, ptr %105, align 1, !tbaa !13
  %107 = call i32 @av_bswap32(i32 noundef %106) #7
  store i32 %107, ptr %13, align 4, !tbaa !11
  %108 = load ptr, ptr %9, align 8, !tbaa !9
  %109 = getelementptr inbounds i8, ptr %108, i64 4
  %110 = load i32, ptr %109, align 1, !tbaa !13
  %111 = call i32 @av_bswap32(i32 noundef %110) #7
  store i32 %111, ptr %14, align 4, !tbaa !11
  br label %112

112:                                              ; preds = %104, %96
  %113 = load ptr, ptr %7, align 8, !tbaa !4
  %114 = load i32, ptr %12, align 4, !tbaa !11
  call void @av_blowfish_crypt_ecb(ptr noundef %113, ptr noundef %13, ptr noundef %14, i32 noundef %114)
  %115 = load i32, ptr %13, align 4, !tbaa !11
  %116 = call i32 @av_bswap32(i32 noundef %115) #7
  %117 = load ptr, ptr %8, align 8, !tbaa !9
  store i32 %116, ptr %117, align 1, !tbaa !13
  %118 = load i32, ptr %14, align 4, !tbaa !11
  %119 = call i32 @av_bswap32(i32 noundef %118) #7
  %120 = load ptr, ptr %8, align 8, !tbaa !9
  %121 = getelementptr inbounds i8, ptr %120, i64 4
  store i32 %119, ptr %121, align 1, !tbaa !13
  %122 = load ptr, ptr %11, align 8, !tbaa !9
  %123 = icmp ne ptr %122, null
  br i1 %123, label %124, label %127

124:                                              ; preds = %112
  %125 = load ptr, ptr %11, align 8, !tbaa !9
  %126 = load ptr, ptr %8, align 8, !tbaa !9
  call void @llvm.memcpy.p0.p0.i64(ptr align 1 %125, ptr align 1 %126, i64 8, i1 false)
  br label %127

127:                                              ; preds = %124, %112
  %128 = load ptr, ptr %9, align 8, !tbaa !9
  %129 = getelementptr inbounds i8, ptr %128, i64 8
  store ptr %129, ptr %9, align 8, !tbaa !9
  %130 = load ptr, ptr %8, align 8, !tbaa !9
  %131 = getelementptr inbounds i8, ptr %130, i64 8
  store ptr %131, ptr %8, align 8, !tbaa !9
  br label %63, !llvm.loop !26

132:                                              ; preds = %63
  br label %133

133:                                              ; preds = %132, %61
  call void @llvm.lifetime.end.p0(i64 4, ptr %15) #6
  call void @llvm.lifetime.end.p0(i64 4, ptr %14) #6
  call void @llvm.lifetime.end.p0(i64 4, ptr %13) #6
  ret void
}