; Function Attrs: nofree norecurse nosync nounwind memory(argmem: readwrite) uwtable
define void @av_blowfish_crypt(ptr noundef readonly captures(none) %0, ptr noundef captures(none) %1, ptr noundef readonly captures(none) %2, i32 noundef %3, ptr noundef captures(address_is_null) %4, i32 noundef %5) local_unnamed_addr #5 {
  %7 = alloca i32, align 4
  %8 = alloca i32, align 4
  call void @llvm.lifetime.start.p0(i64 4, ptr nonnull %7) #7
  call void @llvm.lifetime.start.p0(i64 4, ptr nonnull %8) #7
  %.not = icmp eq i32 %5, 0
  %.not4455 = icmp eq i32 %3, 0
  br i1 %.not, label %.preheader48, label %.preheader49

.preheader49:                                     ; preds = %6
  br i1 %.not4455, label %.loopexit, label %.lr.ph

.lr.ph:                                           ; preds = %.preheader49
  %9 = add nsw i32 %3, -1
  %.not47 = icmp eq ptr %4, null
  %10 = getelementptr inbounds nuw i8, ptr %4, i64 4
  br i1 %.not47, label %.lr.ph.split.us, label %.lr.ph.split

.lr.ph.split.us:                                  ; preds = %.lr.ph, %.lr.ph.split.us
  %11 = phi i32 [ %24, %.lr.ph.split.us ], [ %9, %.lr.ph ]
  %.03753.us = phi ptr [ %23, %.lr.ph.split.us ], [ %1, %.lr.ph ]
  %.03852.us = phi ptr [ %22, %.lr.ph.split.us ], [ %2, %.lr.ph ]
  %12 = load i32, ptr %.03852.us, align 1, !tbaa !4
  %13 = tail call i32 @llvm.bswap.i32(i32 %12)
  store i32 %13, ptr %7, align 4, !tbaa !9
  %14 = getelementptr inbounds nuw i8, ptr %.03852.us, i64 4
  %15 = load i32, ptr %14, align 1, !tbaa !4
  %16 = tail call i32 @llvm.bswap.i32(i32 %15)
  store i32 %16, ptr %8, align 4, !tbaa !9
  call void @av_blowfish_crypt_ecb(ptr noundef %0, ptr noundef nonnull %7, ptr noundef nonnull %8, i32 noundef %5)
  %17 = load i32, ptr %7, align 4, !tbaa !9
  %18 = tail call i32 @llvm.bswap.i32(i32 %17)
  store i32 %18, ptr %.03753.us, align 1, !tbaa !4
  %19 = load i32, ptr %8, align 4, !tbaa !9
  %20 = tail call i32 @llvm.bswap.i32(i32 %19)
  %21 = getelementptr inbounds nuw i8, ptr %.03753.us, i64 4
  store i32 %20, ptr %21, align 1, !tbaa !4
  %22 = getelementptr inbounds nuw i8, ptr %.03852.us, i64 8
  %23 = getelementptr inbounds nuw i8, ptr %.03753.us, i64 8
  %24 = add nsw i32 %11, -1
  %.not46.us = icmp eq i32 %11, 0
  br i1 %.not46.us, label %.loopexit, label %.lr.ph.split.us, !llvm.loop !17

.preheader48:                                     ; preds = %6
  br i1 %.not4455, label %.loopexit, label %.lr.ph58

.lr.ph58:                                         ; preds = %.preheader48
  %25 = add nsw i32 %3, -1
  %.not45 = icmp eq ptr %4, null
  br i1 %.not45, label %.lr.ph58.split.us, label %.preheader

.lr.ph58.split.us:                                ; preds = %.lr.ph58, %.lr.ph58.split.us
  %26 = phi i32 [ %39, %.lr.ph58.split.us ], [ %25, %.lr.ph58 ]
  %.157.us = phi ptr [ %38, %.lr.ph58.split.us ], [ %1, %.lr.ph58 ]
  %.13956.us = phi ptr [ %37, %.lr.ph58.split.us ], [ %2, %.lr.ph58 ]
  %27 = load i32, ptr %.13956.us, align 1, !tbaa !4
  %28 = tail call i32 @llvm.bswap.i32(i32 %27)
  store i32 %28, ptr %7, align 4, !tbaa !9
  %29 = getelementptr inbounds nuw i8, ptr %.13956.us, i64 4
  %30 = load i32, ptr %29, align 1, !tbaa !4
  %31 = tail call i32 @llvm.bswap.i32(i32 %30)
  store i32 %31, ptr %8, align 4, !tbaa !9
  call void @av_blowfish_crypt_ecb(ptr noundef %0, ptr noundef nonnull %7, ptr noundef nonnull %8, i32 noundef 0)
  %32 = load i32, ptr %7, align 4, !tbaa !9
  %33 = tail call i32 @llvm.bswap.i32(i32 %32)
  store i32 %33, ptr %.157.us, align 1, !tbaa !4
  %34 = load i32, ptr %8, align 4, !tbaa !9
  %35 = tail call i32 @llvm.bswap.i32(i32 %34)
  %36 = getelementptr inbounds nuw i8, ptr %.157.us, i64 4
  store i32 %35, ptr %36, align 1, !tbaa !4
  %37 = getelementptr inbounds nuw i8, ptr %.13956.us, i64 8
  %38 = getelementptr inbounds nuw i8, ptr %.157.us, i64 8
  %39 = add nsw i32 %26, -1
  %.not44.us = icmp eq i32 %26, 0
  br i1 %.not44.us, label %.loopexit, label %.lr.ph58.split.us, !llvm.loop !18

.lr.ph.split:                                     ; preds = %.lr.ph, %.lr.ph.split
  %40 = phi i32 [ %60, %.lr.ph.split ], [ %9, %.lr.ph ]
  %.03753 = phi ptr [ %59, %.lr.ph.split ], [ %1, %.lr.ph ]
  %.03852 = phi ptr [ %58, %.lr.ph.split ], [ %2, %.lr.ph ]
  %41 = load i32, ptr %.03852, align 1, !tbaa !4
  %42 = tail call i32 @llvm.bswap.i32(i32 %41)
  store i32 %42, ptr %7, align 4, !tbaa !9
  %43 = getelementptr inbounds nuw i8, ptr %.03852, i64 4
  %44 = load i32, ptr %43, align 1, !tbaa !4
  %45 = tail call i32 @llvm.bswap.i32(i32 %44)
  store i32 %45, ptr %8, align 4, !tbaa !9
  call void @av_blowfish_crypt_ecb(ptr noundef %0, ptr noundef nonnull %7, ptr noundef nonnull %8, i32 noundef %5)
  %46 = load i32, ptr %4, align 1, !tbaa !4
  %47 = tail call i32 @llvm.bswap.i32(i32 %46)
  %48 = load i32, ptr %7, align 4, !tbaa !9
  %49 = xor i32 %48, %47
  store i32 %49, ptr %7, align 4, !tbaa !9
  %50 = load i32, ptr %10, align 1, !tbaa !4
  %51 = tail call i32 @llvm.bswap.i32(i32 %50)
  %52 = load i32, ptr %8, align 4, !tbaa !9
  %53 = xor i32 %52, %51
  store i32 %53, ptr %8, align 4, !tbaa !9
  %54 = load i64, ptr %.03852, align 1
  store i64 %54, ptr %4, align 1
  %55 = tail call i32 @llvm.bswap.i32(i32 %49)
  store i32 %55, ptr %.03753, align 1, !tbaa !4
  %56 = tail call i32 @llvm.bswap.i32(i32 %53)
  %57 = getelementptr inbounds nuw i8, ptr %.03753, i64 4
  store i32 %56, ptr %57, align 1, !tbaa !4
  %58 = getelementptr inbounds nuw i8, ptr %.03852, i64 8
  %59 = getelementptr inbounds nuw i8, ptr %.03753, i64 8
  %60 = add nsw i32 %40, -1
  %.not46 = icmp eq i32 %40, 0
  br i1 %.not46, label %.loopexit, label %.lr.ph.split, !llvm.loop !17

.preheader:                                       ; preds = %.lr.ph58, %69
  %61 = phi i32 [ %82, %69 ], [ %25, %.lr.ph58 ]
  %.157 = phi ptr [ %81, %69 ], [ %1, %.lr.ph58 ]
  %.13956 = phi ptr [ %80, %69 ], [ %2, %.lr.ph58 ]
  br label %62

62:                                               ; preds = %.preheader, %62
  %indvars.iv = phi i64 [ 0, %.preheader ], [ %indvars.iv.next, %62 ]
  %63 = getelementptr inbounds nuw i8, ptr %.13956, i64 %indvars.iv
  %64 = load i8, ptr %63, align 1, !tbaa !4
  %65 = getelementptr inbounds nuw i8, ptr %4, i64 %indvars.iv
  %66 = load i8, ptr %65, align 1, !tbaa !4
  %67 = xor i8 %66, %64
  %68 = getelementptr inbounds nuw i8, ptr %.157, i64 %indvars.iv
  store i8 %67, ptr %68, align 1, !tbaa !4
  %indvars.iv.next = add nuw nsw i64 %indvars.iv, 1
  %exitcond.not = icmp eq i64 %indvars.iv.next, 8
  br i1 %exitcond.not, label %69, label %62, !llvm.loop !19

69:                                               ; preds = %62
  %70 = load i32, ptr %.157, align 1, !tbaa !4
  %71 = tail call i32 @llvm.bswap.i32(i32 %70)
  store i32 %71, ptr %7, align 4, !tbaa !9
  %72 = getelementptr inbounds nuw i8, ptr %.157, i64 4
  %73 = load i32, ptr %72, align 1, !tbaa !4
  %74 = tail call i32 @llvm.bswap.i32(i32 %73)
  store i32 %74, ptr %8, align 4, !tbaa !9
  call void @av_blowfish_crypt_ecb(ptr noundef %0, ptr noundef nonnull %7, ptr noundef nonnull %8, i32 noundef 0)
  %75 = load i32, ptr %7, align 4, !tbaa !9
  %76 = tail call i32 @llvm.bswap.i32(i32 %75)
  store i32 %76, ptr %.157, align 1, !tbaa !4
  %77 = load i32, ptr %8, align 4, !tbaa !9
  %78 = tail call i32 @llvm.bswap.i32(i32 %77)
  store i32 %78, ptr %72, align 1, !tbaa !4
  %79 = load i64, ptr %.157, align 1
  store i64 %79, ptr %4, align 1
  %80 = getelementptr inbounds nuw i8, ptr %.13956, i64 8
  %81 = getelementptr inbounds nuw i8, ptr %.157, i64 8
  %82 = add nsw i32 %61, -1
  %.not44 = icmp eq i32 %61, 0
  br i1 %.not44, label %.loopexit, label %.preheader, !llvm.loop !18

.loopexit:                                        ; preds = %.lr.ph.split, %.lr.ph.split.us, %69, %.lr.ph58.split.us, %.preheader49, %.preheader48
  call void @llvm.lifetime.end.p0(i64 4, ptr nonnull %8) #7
  call void @llvm.lifetime.end.p0(i64 4, ptr nonnull %7) #7
  ret void
}